target datalayout = "e-m:e-p270:32:32-p271:32:32-p272:64:64-i64:64-i128:128-f80:128-n8:16:32:64-S128"
target triple = "x86_64-pc-linux-gnu"

%struct.SDL_DriverPS5_Context = type { ptr, ptr, i8, i8, i8, i8, i8, i8, i8, i8, i32, i8, i8, i8, i8, i8, i8, i8, [6 x %struct.IMUCalibrationData], i16, i64, i32, i8, i8, i8, i8, i8, i8, i8, i32, i64, i32, %union.anon }
%struct.IMUCalibrationData = type { i16, float }
%union.anon = type { [64 x i8] }
%struct.PS5StatePacketAlt_t = type { i8, i8, i8, i8, i8, i8, i8, [4 x i8], [4 x i8], [2 x i8], [2 x i8], [2 x i8], [2 x i8], [2 x i8], [2 x i8], [2 x i8], i8, i8, i8, [3 x i8], i8, [3 x i8] }

; Function Attrs: nounwind uwtable
define internal void @HIDAPI_DriverPS5_HandleStatePacketAlt(ptr noundef %0, ptr noundef %1, ptr noundef %2, ptr noundef %3, i64 noundef %4) #0 {
  %6 = alloca ptr, align 8
  %7 = alloca ptr, align 8
  %8 = alloca ptr, align 8
  %9 = alloca ptr, align 8
  %10 = alloca i64, align 8
  %11 = alloca i8, align 1
  %12 = alloca i32, align 4
  %13 = alloca i32, align 4
  store ptr %0, ptr %6, align 8
  store ptr %1, ptr %7, align 8
  store ptr %2, ptr %8, align 8
  store ptr %3, ptr %9, align 8
  store i64 %4, ptr %10, align 8
  call void @llvm.lifetime.start.p0(i64 1, ptr %11) #6
  call void @llvm.lifetime.start.p0(i64 4, ptr %12) #6
  call void @llvm.lifetime.start.p0(i64 4, ptr %13) #6
  %14 = load ptr, ptr %8, align 8
  %15 = getelementptr inbounds nuw %struct.SDL_DriverPS5_Context, ptr %14, i32 0, i32 15
  %16 = load i8, ptr %15, align 8, !range !5, !noundef !6
  %17 = trunc i8 %16 to i1
  br i1 %17, label %18, label %111

18:                                               ; preds = %5
  %19 = load ptr, ptr %9, align 8
  %20 = getelementptr inbounds nuw %struct.PS5StatePacketAlt_t, ptr %19, i32 0, i32 18
  %21 = load i8, ptr %20, align 1
  %22 = zext i8 %21 to i32
  %23 = and i32 %22, 128
  %24 = icmp eq i32 %23, 0
  %25 = zext i1 %24 to i8
  store i8 %25, ptr %11, align 1
  %26 = load ptr, ptr %9, align 8
  %27 = getelementptr inbounds nuw %struct.PS5StatePacketAlt_t, ptr %26, i32 0, i32 19
  %28 = getelementptr inbounds [3 x i8], ptr %27, i64 0, i64 0
  %29 = load i8, ptr %28, align 1
  %30 = zext i8 %29 to i32
  %31 = load ptr, ptr %9, align 8
  %32 = getelementptr inbounds nuw %struct.PS5StatePacketAlt_t, ptr %31, i32 0, i32 19
  %33 = getelementptr inbounds [3 x i8], ptr %32, i64 0, i64 1
  %34 = load i8, ptr %33, align 1
  %35 = zext i8 %34 to i32
  %36 = and i32 %35, 15
  %37 = shl i32 %36, 8
  %38 = or i32 %30, %37
  store i32 %38, ptr %12, align 4
  %39 = load ptr, ptr %9, align 8
  %40 = getelementptr inbounds nuw %struct.PS5StatePacketAlt_t, ptr %39, i32 0, i32 19
  %41 = getelementptr inbounds [3 x i8], ptr %40, i64 0, i64 1
  %42 = load i8, ptr %41, align 1
  %43 = zext i8 %42 to i32
  %44 = ashr i32 %43, 4
  %45 = load ptr, ptr %9, align 8
  %46 = getelementptr inbounds nuw %struct.PS5StatePacketAlt_t, ptr %45, i32 0, i32 19
  %47 = getelementptr inbounds [3 x i8], ptr %46, i64 0, i64 2
  %48 = load i8, ptr %47, align 1
  %49 = zext i8 %48 to i32
  %50 = shl i32 %49, 4
  %51 = or i32 %44, %50
  store i32 %51, ptr %13, align 4
  %52 = load i64, ptr %10, align 8
  %53 = load ptr, ptr %6, align 8
  %54 = load i8, ptr %11, align 1, !range !5, !noundef !6
  %55 = trunc i8 %54 to i1
  %56 = load i32, ptr %12, align 4
  %57 = sitofp i32 %56 to float
  %58 = fmul float %57, 0x3F41111120000000
  %59 = load i32, ptr %13, align 4
  %60 = sitofp i32 %59 to float
  %61 = fmul float %60, 0x3F4E9FD220000000
  %62 = load i8, ptr %11, align 1, !range !5, !noundef !6
  %63 = trunc i8 %62 to i1
  %64 = select i1 %63, float 1.000000e+00, float 0.000000e+00
  call void @SDL_SendJoystickTouchpad(i64 noundef %52, ptr noundef %53, i32 noundef 0, i32 noundef 0, i1 noundef zeroext %55, float noundef %58, float noundef %61, float noundef %64)
  %65 = load ptr, ptr %9, align 8
  %66 = getelementptr inbounds nuw %struct.PS5StatePacketAlt_t, ptr %65, i32 0, i32 20
  %67 = load i8, ptr %66, align 1
  %68 = zext i8 %67 to i32
  %69 = and i32 %68, 128
  %70 = icmp eq i32 %69, 0
  %71 = zext i1 %70 to i8
  store i8 %71, ptr %11, align 1
  %72 = load ptr, ptr %9, align 8
  %73 = getelementptr inbounds nuw %struct.PS5StatePacketAlt_t, ptr %72, i32 0, i32 21
  %74 = getelementptr inbounds [3 x i8], ptr %73, i64 0, i64 0
  %75 = load i8, ptr %74, align 1
  %76 = zext i8 %75 to i32
  %77 = load ptr, ptr %9, align 8
  %78 = getelementptr inbounds nuw %struct.PS5StatePacketAlt_t, ptr %77, i32 0, i32 21
  %79 = getelementptr inbounds [3 x i8], ptr %78, i64 0, i64 1
  %80 = load i8, ptr %79, align 1
  %81 = zext i8 %80 to i32
  %82 = and i32 %81, 15
  %83 = shl i32 %82, 8
  %84 = or i32 %76, %83
  store i32 %84, ptr %12, align 4
  %85 = load ptr, ptr %9, align 8
  %86 = getelementptr inbounds nuw %struct.PS5StatePacketAlt_t, ptr %85, i32 0, i32 21
  %87 = getelementptr inbounds [3 x i8], ptr %86, i64 0, i64 1
  %88 = load i8, ptr %87, align 1
  %89 = zext i8 %88 to i32
  %90 = ashr i32 %89, 4
  %91 = load ptr, ptr %9, align 8
  %92 = getelementptr inbounds nuw %struct.PS5StatePacketAlt_t, ptr %91, i32 0, i32 21
  %93 = getelementptr inbounds [3 x i8], ptr %92, i64 0, i64 2
  %94 = load i8, ptr %93, align 1
  %95 = zext i8 %94 to i32
  %96 = shl i32 %95, 4
  %97 = or i32 %90, %96
  store i32 %97, ptr %13, align 4
  %98 = load i64, ptr %10, align 8
  %99 = load ptr, ptr %6, align 8
  %100 = load i8, ptr %11, align 1, !range !5, !noundef !6
  %101 = trunc i8 %100 to i1
  %102 = load i32, ptr %12, align 4
  %103 = sitofp i32 %102 to float
  %104 = fmul float %103, 0x3F41111120000000
  %105 = load i32, ptr %13, align 4
  %106 = sitofp i32 %105 to float
  %107 = fmul float %106, 0x3F4E9FD220000000
  %108 = load i8, ptr %11, align 1, !range !5, !noundef !6
  %109 = trunc i8 %108 to i1
  %110 = select i1 %109, float 1.000000e+00, float 0.000000e+00
  call void @SDL_SendJoystickTouchpad(i64 noundef %98, ptr noundef %99, i32 noundef 0, i32 noundef 1, i1 noundef zeroext %101, float noundef %104, float noundef %107, float noundef %110)
  br label %111

111:                                              ; preds = %18, %5
  %112 = load ptr, ptr %6, align 8
  %113 = load ptr, ptr %7, align 8
  %114 = load ptr, ptr %8, align 8
  %115 = load ptr, ptr %9, align 8
  %116 = load i64, ptr %10, align 8
  call void @HIDAPI_DriverPS5_HandleStatePacketCommon(ptr noundef %112, ptr noundef %113, ptr noundef %114, ptr noundef %115, i64 noundef %116)
  %117 = load ptr, ptr %8, align 8
  %118 = getelementptr inbounds nuw %struct.SDL_DriverPS5_Context, ptr %117, i32 0, i32 32
  %119 = load ptr, ptr %9, align 8
  call void @llvm.memcpy.p0.p0.i64(ptr align 4 %118, ptr align 1 %119, i64 64, i1 false)
  call void @llvm.lifetime.end.p0(i64 4, ptr %13) #6
  call void @llvm.lifetime.end.p0(i64 4, ptr %12) #6
  call void @llvm.lifetime.end.p0(i64 1, ptr %11) #6
  ret void
}