; Function Attrs: nounwind uwtable
define internal fastcc void @HIDAPI_DriverPS5_HandleStatePacketAlt(ptr noundef nonnull %0, ptr noundef captures(none) %1, ptr noundef nonnull readonly captures(none) %2, i64 noundef %3) unnamed_addr #0 {
  %5 = getelementptr inbounds nuw i8, ptr %1, i64 32
  %6 = load i8, ptr %5, align 8, !range !5, !noundef !6
  %7 = trunc nuw i8 %6 to i1
  br i1 %7, label %8, label %55

8:                                                ; preds = %4
  %9 = getelementptr inbounds nuw i8, ptr %2, i64 31
  %10 = load i8, ptr %9, align 1
  %11 = icmp sgt i8 %10, -1
  %12 = getelementptr inbounds nuw i8, ptr %2, i64 32
  %13 = load i8, ptr %12, align 1
  %14 = zext i8 %13 to i32
  %15 = getelementptr inbounds nuw i8, ptr %2, i64 33
  %16 = load i8, ptr %15, align 1
  %17 = zext i8 %16 to i32
  %18 = shl nuw nsw i32 %17, 8
  %19 = and i32 %18, 3840
  %20 = or disjoint i32 %19, %14
  %21 = lshr i32 %17, 4
  %22 = getelementptr inbounds nuw i8, ptr %2, i64 34
  %23 = load i8, ptr %22, align 1
  %24 = zext i8 %23 to i32
  %25 = shl nuw nsw i32 %24, 4
  %26 = or disjoint i32 %25, %21
  %27 = uitofp nneg i32 %20 to float
  %28 = fmul float %27, 0x3F41111120000000
  %29 = uitofp nneg i32 %26 to float
  %30 = fmul float %29, 0x3F4E9FD220000000
  %31 = select i1 %11, float 1.000000e+00, float 0.000000e+00
  tail call void @SDL_SendJoystickTouchpad(i64 noundef %3, ptr noundef nonnull %0, i32 noundef 0, i32 noundef 0, i1 noundef zeroext %11, float noundef %28, float noundef %30, float noundef %31) #9
  %32 = getelementptr inbounds nuw i8, ptr %2, i64 35
  %33 = load i8, ptr %32, align 1
  %34 = icmp sgt i8 %33, -1
  %35 = getelementptr inbounds nuw i8, ptr %2, i64 36
  %36 = load i8, ptr %35, align 1
  %37 = zext i8 %36 to i32
  %38 = getelementptr inbounds nuw i8, ptr %2, i64 37
  %39 = load i8, ptr %38, align 1
  %40 = zext i8 %39 to i32
  %41 = shl nuw nsw i32 %40, 8
  %42 = and i32 %41, 3840
  %43 = or disjoint i32 %42, %37
  %44 = lshr i32 %40, 4
  %45 = getelementptr inbounds nuw i8, ptr %2, i64 38
  %46 = load i8, ptr %45, align 1
  %47 = zext i8 %46 to i32
  %48 = shl nuw nsw i32 %47, 4
  %49 = or disjoint i32 %48, %44
  %50 = uitofp nneg i32 %43 to float
  %51 = fmul float %50, 0x3F41111120000000
  %52 = uitofp nneg i32 %49 to float
  %53 = fmul float %52, 0x3F4E9FD220000000
  %54 = select i1 %34, float 1.000000e+00, float 0.000000e+00
  tail call void @SDL_SendJoystickTouchpad(i64 noundef %3, ptr noundef nonnull %0, i32 noundef 0, i32 noundef 1, i1 noundef zeroext %34, float noundef %51, float noundef %53, float noundef %54) #9
  br label %55

55:                                               ; preds = %8, %4
  tail call fastcc void @HIDAPI_DriverPS5_HandleStatePacketCommon(ptr noundef %0, ptr noundef nonnull %1, ptr noundef %2, i64 noundef %3)
  %56 = getelementptr inbounds nuw i8, ptr %1, i64 124
  tail call void @llvm.memcpy.p0.p0.i64(ptr noundef nonnull align 4 dereferenceable(64) %56, ptr noundef nonnull align 1 dereferenceable(64) %2, i64 64, i1 false)
  ret void
}